target datalayout = "e-m:e-p270:32:32-p271:32:32-p272:64:64-i64:64-i128:128-f80:128-n8:16:32:64-S128"
target triple = "x86_64-pc-linux-gnu"

%"class.std::__cxx11::basic_string" = type { %"struct.std::__cxx11::basic_string<char>::_Alloc_hider", i64, %union.anon }
%"struct.std::__cxx11::basic_string<char>::_Alloc_hider" = type { ptr }
%union.anon = type { i64, [8 x i8] }
%"class.cm::static_string_view" = type { %"class.std::basic_string_view" }
%"class.std::basic_string_view" = type { i64, ptr }
%"struct.std::__detail::_Hash_node_base" = type { ptr }
%"struct.std::__detail::_Prime_rehash_policy" = type { float, i64 }
%class.cmTarget = type { %"class.std::unique_ptr" }
%"class.std::unique_ptr" = type { %"struct.std::__uniq_ptr_data" }
%"struct.std::__uniq_ptr_data" = type { %"class.std::__uniq_ptr_impl" }
%"class.std::__uniq_ptr_impl" = type { %"class.std::tuple" }
%"class.std::tuple" = type { %"struct.std::_Tuple_impl" }
%"struct.std::_Tuple_impl" = type { %"struct.std::_Head_base.1" }
%"struct.std::_Head_base.1" = type { ptr }
%class.cmTargetInternals = type { i32, ptr, %"struct.cmPolicies::PolicyMap", ptr, %"class.std::__cxx11::basic_string", %"class.std::__cxx11::basic_string", %"class.std::__cxx11::basic_string", %class.cmPropertyMap, i8, i8, i8, i8, i8, i8, i8, i8, i32, %"class.std::set.182", %"class.std::set", %"class.std::vector.188", %"class.std::vector.188", %"class.std::vector.188", %"class.std::vector.193", %"class.std::set", %"class.std::vector.198", %"class.std::map.203", %"class.std::map.208", %"class.std::vector.214", %"class.std::map.219", %class.cmListFileBacktrace, %class.cmFindPackageStack, %"struct.(anonymous namespace)::UsageRequirementProperty", %"struct.(anonymous namespace)::UsageRequirementProperty", %"struct.(anonymous namespace)::UsageRequirementProperty", %"struct.(anonymous namespace)::UsageRequirementProperty", %"struct.(anonymous namespace)::UsageRequirementProperty", %"struct.(anonymous namespace)::UsageRequirementProperty", %"struct.(anonymous namespace)::UsageRequirementProperty", %"struct.(anonymous namespace)::UsageRequirementProperty", %"struct.(anonymous namespace)::UsageRequirementProperty", %"struct.(anonymous namespace)::UsageRequirementProperty", %"struct.(anonymous namespace)::UsageRequirementProperty", %"struct.(anonymous namespace)::UsageRequirementProperty", %"struct.(anonymous namespace)::UsageRequirementProperty", %"struct.(anonymous namespace)::UsageRequirementProperty", %"struct.(anonymous namespace)::UsageRequirementProperty", %"struct.(anonymous namespace)::UsageRequirementProperty", %"struct.(anonymous namespace)::UsageRequirementProperty", %"struct.(anonymous namespace)::FileSetType", %"struct.(anonymous namespace)::FileSetType" }
%"struct.cmPolicies::PolicyMap" = type { %"class.std::bitset.180" }
%"class.std::bitset.180" = type { %"struct.std::_Base_bitset.181" }
%"struct.std::_Base_bitset.181" = type { [9 x i64] }
%class.cmPropertyMap = type { %"class.std::unordered_map.153" }
%"class.std::unordered_map.153" = type { %"class.std::_Hashtable.154" }
%"class.std::_Hashtable.154" = type { ptr, i64, %"struct.std::__detail::_Hash_node_base", i64, %"struct.std::__detail::_Prime_rehash_policy", ptr }
%"class.std::set.182" = type { %"class.std::_Rb_tree.183" }
%"class.std::_Rb_tree.183" = type { %"struct.std::_Rb_tree<BT<std::pair<std::__cxx11::basic_string<char>, bool>>, BT<std::pair<std::__cxx11::basic_string<char>, bool>>, std::_Identity<BT<std::pair<std::__cxx11::basic_string<char>, bool>>>, std::less<BT<std::pair<std::__cxx11::basic_string<char>, bool>>>>::_Rb_tree_impl" }
%"struct.std::_Rb_tree<BT<std::pair<std::__cxx11::basic_string<char>, bool>>, BT<std::pair<std::__cxx11::basic_string<char>, bool>>, std::_Identity<BT<std::pair<std::__cxx11::basic_string<char>, bool>>>, std::less<BT<std::pair<std::__cxx11::basic_string<char>, bool>>>>::_Rb_tree_impl" = type { [8 x i8], %"struct.std::_Rb_tree_header" }
%"struct.std::_Rb_tree_header" = type { %"struct.std::_Rb_tree_node_base", i64 }
%"struct.std::_Rb_tree_node_base" = type { i32, ptr, ptr, ptr }
%"class.std::vector.188" = type { %"struct.std::_Vector_base.189" }
%"struct.std::_Vector_base.189" = type { %"struct.std::_Vector_base<cmCustomCommand, std::allocator<cmCustomCommand>>::_Vector_impl" }
%"struct.std::_Vector_base<cmCustomCommand, std::allocator<cmCustomCommand>>::_Vector_impl" = type { %"struct.std::_Vector_base<cmCustomCommand, std::allocator<cmCustomCommand>>::_Vector_impl_data" }
%"struct.std::_Vector_base<cmCustomCommand, std::allocator<cmCustomCommand>>::_Vector_impl_data" = type { ptr, ptr, ptr }
%"class.std::vector.193" = type { %"struct.std::_Vector_base.194" }
%"struct.std::_Vector_base.194" = type { %"struct.std::_Vector_base<cmInstallTargetGenerator *, std::allocator<cmInstallTargetGenerator *>>::_Vector_impl" }
%"struct.std::_Vector_base<cmInstallTargetGenerator *, std::allocator<cmInstallTargetGenerator *>>::_Vector_impl" = type { %"struct.std::_Vector_base<cmInstallTargetGenerator *, std::allocator<cmInstallTargetGenerator *>>::_Vector_impl_data" }
%"struct.std::_Vector_base<cmInstallTargetGenerator *, std::allocator<cmInstallTargetGenerator *>>::_Vector_impl_data" = type { ptr, ptr, ptr }
%"class.std::set" = type { %"class.std::_Rb_tree.61" }
%"class.std::_Rb_tree.61" = type { %"struct.std::_Rb_tree<std::__cxx11::basic_string<char>, std::__cxx11::basic_string<char>, std::_Identity<std::__cxx11::basic_string<char>>, std::less<std::__cxx11::basic_string<char>>>::_Rb_tree_impl" }
%"struct.std::_Rb_tree<std::__cxx11::basic_string<char>, std::__cxx11::basic_string<char>, std::_Identity<std::__cxx11::basic_string<char>>, std::less<std::__cxx11::basic_string<char>>>::_Rb_tree_impl" = type { [8 x i8], %"struct.std::_Rb_tree_header" }
%"class.std::vector.198" = type { %"struct.std::_Vector_base.199" }
%"struct.std::_Vector_base.199" = type { %"struct.std::_Vector_base<std::pair<std::__cxx11::basic_string<char>, cmTargetLinkLibraryType>, std::allocator<std::pair<std::__cxx11::basic_string<char>, cmTargetLinkLibraryType>>>::_Vector_impl" }
%"struct.std::_Vector_base<std::pair<std::__cxx11::basic_string<char>, cmTargetLinkLibraryType>, std::allocator<std::pair<std::__cxx11::basic_string<char>, cmTargetLinkLibraryType>>>::_Vector_impl" = type { %"struct.std::_Vector_base<std::pair<std::__cxx11::basic_string<char>, cmTargetLinkLibraryType>, std::allocator<std::pair<std::__cxx11::basic_string<char>, cmTargetLinkLibraryType>>>::_Vector_impl_data" }
%"struct.std::_Vector_base<std::pair<std::__cxx11::basic_string<char>, cmTargetLinkLibraryType>, std::allocator<std::pair<std::__cxx11::basic_string<char>, cmTargetLinkLibraryType>>>::_Vector_impl_data" = type { ptr, ptr, ptr }
%"class.std::map.203" = type { %"class.std::_Rb_tree.204" }
%"class.std::_Rb_tree.204" = type { %"struct.std::_Rb_tree<std::__cxx11::basic_string<char>, std::pair<const std::__cxx11::basic_string<char>, BTs<std::__cxx11::basic_string<char>>>, std::_Select1st<std::pair<const std::__cxx11::basic_string<char>, BTs<std::__cxx11::basic_string<char>>>>, std::less<std::__cxx11::basic_string<char>>>::_Rb_tree_impl" }
%"struct.std::_Rb_tree<std::__cxx11::basic_string<char>, std::pair<const std::__cxx11::basic_string<char>, BTs<std::__cxx11::basic_string<char>>>, std::_Select1st<std::pair<const std::__cxx11::basic_string<char>, BTs<std::__cxx11::basic_string<char>>>>, std::less<std::__cxx11::basic_string<char>>>::_Rb_tree_impl" = type { [8 x i8], %"struct.std::_Rb_tree_header" }
%"class.std::map.208" = type { %"class.std::_Rb_tree.209" }
%"class.std::_Rb_tree.209" = type { %"struct.std::_Rb_tree<const cmTargetExport *, std::pair<const cmTargetExport *const, std::vector<std::__cxx11::basic_string<char>>>, std::_Select1st<std::pair<const cmTargetExport *const, std::vector<std::__cxx11::basic_string<char>>>>, std::less<const cmTargetExport *>>::_Rb_tree_impl" }
%"struct.std::_Rb_tree<const cmTargetExport *, std::pair<const cmTargetExport *const, std::vector<std::__cxx11::basic_string<char>>>, std::_Select1st<std::pair<const cmTargetExport *const, std::vector<std::__cxx11::basic_string<char>>>>, std::less<const cmTargetExport *>>::_Rb_tree_impl" = type { [8 x i8], %"struct.std::_Rb_tree_header" }
%"class.std::vector.214" = type { %"struct.std::_Vector_base.215" }
%"struct.std::_Vector_base.215" = type { %"struct.std::_Vector_base<std::pair<cmTarget::TLLSignature, cmListFileContext>, std::allocator<std::pair<cmTarget::TLLSignature, cmListFileContext>>>::_Vector_impl" }
%"struct.std::_Vector_base<std::pair<cmTarget::TLLSignature, cmListFileContext>, std::allocator<std::pair<cmTarget::TLLSignature, cmListFileContext>>>::_Vector_impl" = type { %"struct.std::_Vector_base<std::pair<cmTarget::TLLSignature, cmListFileContext>, std::allocator<std::pair<cmTarget::TLLSignature, cmListFileContext>>>::_Vector_impl_data" }
%"struct.std::_Vector_base<std::pair<cmTarget::TLLSignature, cmListFileContext>, std::allocator<std::pair<cmTarget::TLLSignature, cmListFileContext>>>::_Vector_impl_data" = type { ptr, ptr, ptr }
%"class.std::map.219" = type { %"class.std::_Rb_tree.220" }
%"class.std::_Rb_tree.220" = type { %"struct.std::_Rb_tree<std::__cxx11::basic_string<char>, std::pair<const std::__cxx11::basic_string<char>, cmFileSet>, std::_Select1st<std::pair<const std::__cxx11::basic_string<char>, cmFileSet>>, std::less<std::__cxx11::basic_string<char>>>::_Rb_tree_impl" }
%"struct.std::_Rb_tree<std::__cxx11::basic_string<char>, std::pair<const std::__cxx11::basic_string<char>, cmFileSet>, std::_Select1st<std::pair<const std::__cxx11::basic_string<char>, cmFileSet>>, std::less<std::__cxx11::basic_string<char>>>::_Rb_tree_impl" = type { [8 x i8], %"struct.std::_Rb_tree_header" }
%class.cmListFileBacktrace = type { %class.cmConstStack }
%class.cmConstStack = type { %"class.std::shared_ptr" }
%"class.std::shared_ptr" = type { %"class.std::__shared_ptr" }
%"class.std::__shared_ptr" = type { ptr, %"class.std::__shared_count" }
%"class.std::__shared_count" = type { ptr }
%class.cmFindPackageStack = type { %class.cmConstStack.149 }
%class.cmConstStack.149 = type { %"class.std::shared_ptr.150" }
%"class.std::shared_ptr.150" = type { %"class.std::__shared_ptr.151" }
%"class.std::__shared_ptr.151" = type { ptr, %"class.std::__shared_count" }
%"struct.(anonymous namespace)::UsageRequirementProperty" = type { %"class.cm::static_string_view", i32, %"class.std::vector.175" }
%"class.std::vector.175" = type { %"struct.std::_Vector_base.176" }
%"struct.std::_Vector_base.176" = type { %"struct.std::_Vector_base<BT<std::__cxx11::basic_string<char>>, std::allocator<BT<std::__cxx11::basic_string<char>>>>::_Vector_impl" }
%"struct.std::_Vector_base<BT<std::__cxx11::basic_string<char>>, std::allocator<BT<std::__cxx11::basic_string<char>>>>::_Vector_impl" = type { %"struct.std::_Vector_base<BT<std::__cxx11::basic_string<char>>, std::allocator<BT<std::__cxx11::basic_string<char>>>>::_Vector_impl_data" }
%"struct.std::_Vector_base<BT<std::__cxx11::basic_string<char>>, std::allocator<BT<std::__cxx11::basic_string<char>>>>::_Vector_impl_data" = type { ptr, ptr, ptr }
%"struct.(anonymous namespace)::FileSetType" = type { %"class.cm::static_string_view", %"class.cm::static_string_view", %"class.cm::static_string_view", %"class.cm::static_string_view", %"class.cm::static_string_view", %"class.cm::static_string_view", %"class.cm::static_string_view", %"class.cm::static_string_view", %"struct.(anonymous namespace)::FileSetEntries", %"struct.(anonymous namespace)::FileSetEntries" }
%"struct.(anonymous namespace)::FileSetEntries" = type { %"class.cm::static_string_view", %"class.std::vector.175" }

@.str = private unnamed_addr constant [1 x i8] zeroinitializer, align 1
@.str.368 = private unnamed_addr constant [28 x i8] c"CMAKE_STATIC_LIBRARY_PREFIX\00", align 1
@.str.369 = private unnamed_addr constant [28 x i8] c"CMAKE_SHARED_LIBRARY_PREFIX\00", align 1
@.str.370 = private unnamed_addr constant [31 x i8] c"CMAKE_APPLE_IMPORT_FILE_PREFIX\00", align 1
@.str.371 = private unnamed_addr constant [28 x i8] c"CMAKE_IMPORT_LIBRARY_PREFIX\00", align 1
@.str.372 = private unnamed_addr constant [27 x i8] c"CMAKE_SHARED_MODULE_PREFIX\00", align 1
@.str.373 = private unnamed_addr constant [29 x i8] c"CMAKE_AIX_IMPORT_FILE_PREFIX\00", align 1

; Function Attrs: mustprogress nounwind uwtable
define linkonce_odr dso_local noundef nonnull align 8 dereferenceable(8) ptr @_ZNSt10_Head_baseILm0EP17cmTargetInternalsLb0EE7_M_headERKS2_(ptr noundef nonnull align 8 dereferenceable(8) %0) #6 comdat align 2 {
  %2 = alloca ptr, align 8
  store ptr %0, ptr %2, align 8, !tbaa !731
  %3 = load ptr, ptr %2, align 8, !tbaa !731
  %4 = getelementptr inbounds nuw %"struct.std::_Head_base.1", ptr %3, i32 0, i32 0
  ret ptr %4
}

; Function Attrs: mustprogress nounwind uwtable
define linkonce_odr dso_local noundef nonnull align 8 dereferenceable(8) ptr @_ZNSt11_Tuple_implILm0EJP17cmTargetInternalsSt14default_deleteIS0_EEE7_M_headERKS4_(ptr noundef nonnull align 8 dereferenceable(8) %0) #6 comdat align 2 {
  %2 = alloca ptr, align 8
  store ptr %0, ptr %2, align 8, !tbaa !726
  %3 = load ptr, ptr %2, align 8, !tbaa !726
  %4 = call noundef nonnull align 8 dereferenceable(8) ptr @_ZNSt10_Head_baseILm0EP17cmTargetInternalsLb0EE7_M_headERKS2_(ptr noundef nonnull align 8 dereferenceable(8) %3) #3
  ret ptr %4
}

; Function Attrs: mustprogress nounwind uwtable
define linkonce_odr dso_local noundef nonnull align 8 dereferenceable(8) ptr @_ZSt12__get_helperILm0EP17cmTargetInternalsJSt14default_deleteIS0_EEERKT0_RKSt11_Tuple_implIXT_EJS4_DpT1_EE(ptr noundef nonnull align 8 dereferenceable(8) %0) #6 comdat {
  %2 = alloca ptr, align 8
  store ptr %0, ptr %2, align 8, !tbaa !726
  %3 = load ptr, ptr %2, align 8, !tbaa !726
  %4 = call noundef nonnull align 8 dereferenceable(8) ptr @_ZNSt11_Tuple_implILm0EJP17cmTargetInternalsSt14default_deleteIS0_EEE7_M_headERKS4_(ptr noundef nonnull align 8 dereferenceable(8) %3) #3
  ret ptr %4
}

; Function Attrs: mustprogress nounwind uwtable
define linkonce_odr dso_local noundef nonnull align 8 dereferenceable(8) ptr @_ZSt3getILm0EJP17cmTargetInternalsSt14default_deleteIS0_EEERKNSt13tuple_elementIXT_ESt5tupleIJDpT0_EEE4typeERKS8_(ptr noundef nonnull align 8 dereferenceable(8) %0) #6 comdat {
  %2 = alloca ptr, align 8
  store ptr %0, ptr %2, align 8, !tbaa !724
  %3 = load ptr, ptr %2, align 8, !tbaa !724
  %4 = call noundef nonnull align 8 dereferenceable(8) ptr @_ZSt12__get_helperILm0EP17cmTargetInternalsJSt14default_deleteIS0_EEERKT0_RKSt11_Tuple_implIXT_EJS4_DpT1_EE(ptr noundef nonnull align 8 dereferenceable(8) %3) #3
  ret ptr %4
}

; Function Attrs: mustprogress nounwind uwtable
define linkonce_odr dso_local noundef ptr @_ZNKSt15__uniq_ptr_implI17cmTargetInternalsSt14default_deleteIS0_EE6_M_ptrEv(ptr noundef nonnull align 8 dereferenceable(8) %0) #6 comdat align 2 {
  %2 = alloca ptr, align 8
  store ptr %0, ptr %2, align 8, !tbaa !722
  %3 = load ptr, ptr %2, align 8
  %4 = getelementptr inbounds nuw %"class.std::__uniq_ptr_impl", ptr %3, i32 0, i32 0
  %5 = call noundef nonnull align 8 dereferenceable(8) ptr @_ZSt3getILm0EJP17cmTargetInternalsSt14default_deleteIS0_EEERKNSt13tuple_elementIXT_ESt5tupleIJDpT0_EEE4typeERKS8_(ptr noundef nonnull align 8 dereferenceable(8) %4) #3
  %6 = load ptr, ptr %5, align 8, !tbaa !163
  ret ptr %6
}

; Function Attrs: mustprogress nounwind uwtable
define linkonce_odr dso_local noundef ptr @_ZNKSt10unique_ptrI17cmTargetInternalsSt14default_deleteIS0_EE3getEv(ptr noundef nonnull align 8 dereferenceable(8) %0) #6 comdat align 2 {
  %2 = alloca ptr, align 8
  store ptr %0, ptr %2, align 8, !tbaa !240
  %3 = load ptr, ptr %2, align 8
  %4 = getelementptr inbounds nuw %"class.std::unique_ptr", ptr %3, i32 0, i32 0
  %5 = call noundef ptr @_ZNKSt15__uniq_ptr_implI17cmTargetInternalsSt14default_deleteIS0_EE6_M_ptrEv(ptr noundef nonnull align 8 dereferenceable(8) %4) #3
  ret ptr %5
}

; Function Attrs: mustprogress nounwind uwtable
define linkonce_odr dso_local noundef ptr @_ZNKSt10unique_ptrI17cmTargetInternalsSt14default_deleteIS0_EEptEv(ptr noundef nonnull align 8 dereferenceable(8) %0) #6 comdat align 2 {
  %2 = alloca ptr, align 8
  store ptr %0, ptr %2, align 8, !tbaa !240
  %3 = load ptr, ptr %2, align 8
  %4 = call noundef ptr @_ZNKSt10unique_ptrI17cmTargetInternalsSt14default_deleteIS0_EE3getEv(ptr noundef nonnull align 8 dereferenceable(8) %3) #3
  ret ptr %4
}

; Function Attrs: mustprogress nounwind uwtable
define dso_local noundef zeroext i1 @_ZNK8cmTarget7IsAppleEv(ptr noundef nonnull align 8 dereferenceable(8) %0) #6 align 2 {
  %2 = alloca ptr, align 8
  store ptr %0, ptr %2, align 8, !tbaa !20
  %3 = load ptr, ptr %2, align 8
  %4 = getelementptr inbounds nuw %class.cmTarget, ptr %3, i32 0, i32 0
  %5 = call noundef ptr @_ZNKSt10unique_ptrI17cmTargetInternalsSt14default_deleteIS0_EEptEv(ptr noundef nonnull align 8 dereferenceable(8) %4) #3
  %6 = getelementptr inbounds nuw %class.cmTargetInternals, ptr %5, i32 0, i32 12
  %7 = load i8, ptr %6, align 4, !tbaa !220, !range !274, !noundef !275
  %8 = trunc i8 %7 to i1
  ret i1 %8
}

; Function Attrs: mustprogress nounwind uwtable
define dso_local noundef i32 @_ZNK8cmTarget7GetTypeEv(ptr noundef nonnull align 8 dereferenceable(8) %0) #6 align 2 {
  %2 = alloca ptr, align 8
  store ptr %0, ptr %2, align 8, !tbaa !20
  %3 = load ptr, ptr %2, align 8
  %4 = getelementptr inbounds nuw %class.cmTarget, ptr %3, i32 0, i32 0
  %5 = call noundef ptr @_ZNKSt10unique_ptrI17cmTargetInternalsSt14default_deleteIS0_EEptEv(ptr noundef nonnull align 8 dereferenceable(8) %4) #3
  %6 = getelementptr inbounds nuw %class.cmTargetInternals, ptr %5, i32 0, i32 0
  %7 = load i32, ptr %6, align 8, !tbaa !25
  ret i32 %7
}

; Function Attrs: mustprogress uwtable
define dso_local noundef ptr @_ZNK8cmTarget25GetPrefixVariableInternalEN12cmStateEnums12ArtifactTypeE(ptr noundef nonnull align 8 dereferenceable(8) %0, i32 noundef %1) #5 align 2 {
  %3 = alloca ptr, align 8
  %4 = alloca ptr, align 8
  %5 = alloca i32, align 4
  store ptr %0, ptr %4, align 8, !tbaa !20
  store i32 %1, ptr %5, align 4, !tbaa !23
  %6 = load ptr, ptr %4, align 8
  %7 = call noundef i32 @_ZNK8cmTarget7GetTypeEv(ptr noundef nonnull align 8 dereferenceable(8) %6)
  switch i32 %7, label %34 [
    i32 1, label %8
    i32 2, label %9
    i32 3, label %16
    i32 0, label %21
  ]

8:                                                ; preds = %2
  store ptr @.str.368, ptr %3, align 8
  br label %36

9:                                                ; preds = %2
  %10 = load i32, ptr %5, align 4, !tbaa !23
  switch i32 %10, label %15 [
    i32 0, label %11
    i32 1, label %12
  ]

11:                                               ; preds = %9
  store ptr @.str.369, ptr %3, align 8
  br label %36

12:                                               ; preds = %9
  %13 = call noundef zeroext i1 @_ZNK8cmTarget7IsAppleEv(ptr noundef nonnull align 8 dereferenceable(8) %6)
  %14 = select i1 %13, ptr @.str.370, ptr @.str.371
  store ptr %14, ptr %3, align 8
  br label %36

15:                                               ; preds = %9
  br label %35

16:                                               ; preds = %2
  %17 = load i32, ptr %5, align 4, !tbaa !23
  switch i32 %17, label %20 [
    i32 0, label %18
    i32 1, label %19
  ]

18:                                               ; preds = %16
  store ptr @.str.372, ptr %3, align 8
  br label %36

19:                                               ; preds = %16
  store ptr @.str.371, ptr %3, align 8
  br label %36

20:                                               ; preds = %16
  br label %35

21:                                               ; preds = %2
  %22 = load i32, ptr %5, align 4, !tbaa !23
  switch i32 %22, label %33 [
    i32 0, label %23
    i32 1, label %26
  ]

23:                                               ; preds = %21
  %24 = call noundef zeroext i1 @_ZNK8cmTarget22IsAndroidGuiExecutableEv(ptr noundef nonnull align 8 dereferenceable(8) %6)
  %25 = select i1 %24, ptr @.str.369, ptr @.str
  store ptr %25, ptr %3, align 8
  br label %36

26:                                               ; preds = %21
  %27 = getelementptr inbounds nuw %class.cmTarget, ptr %6, i32 0, i32 0
  %28 = call noundef ptr @_ZNKSt10unique_ptrI17cmTargetInternalsSt14default_deleteIS0_EEptEv(ptr noundef nonnull align 8 dereferenceable(8) %27) #3
  %29 = getelementptr inbounds nuw %class.cmTargetInternals, ptr %28, i32 0, i32 11
  %30 = load i8, ptr %29, align 1, !tbaa !219, !range !274, !noundef !275
  %31 = trunc i8 %30 to i1
  %32 = select i1 %31, ptr @.str.373, ptr @.str.371
  store ptr %32, ptr %3, align 8
  br label %36

33:                                               ; preds = %21
  br label %35

34:                                               ; preds = %2
  br label %35

35:                                               ; preds = %34, %33, %20, %15
  store ptr @.str, ptr %3, align 8
  br label %36

36:                                               ; preds = %35, %26, %23, %19, %18, %12, %11, %8
  %37 = load ptr, ptr %3, align 8
  ret ptr %37
}