; Function Attrs: mustprogress uwtable
define dso_local noundef nonnull ptr @_ZNK8cmTarget25GetPrefixVariableInternalEN12cmStateEnums12ArtifactTypeE(ptr noundef nonnull readonly align 8 captures(none) dereferenceable(8) %0, i32 noundef %1) local_unnamed_addr #5 align 2 {
  %3 = load ptr, ptr %0, align 8, !tbaa !22
  %4 = load i32, ptr %3, align 8, !tbaa !24
  switch i32 %4, label %21 [
    i32 1, label %22
    i32 2, label %5
    i32 3, label %11
    i32 0, label %12
  ]

5:                                                ; preds = %2
  switch i32 %1, label %21 [
    i32 0, label %22
    i32 1, label %6
  ]

6:                                                ; preds = %5
  %7 = getelementptr inbounds nuw i8, ptr %3, i64 252
  %8 = load i8, ptr %7, align 4, !tbaa !121, !range !122, !noundef !123
  %9 = trunc nuw i8 %8 to i1
  %10 = select i1 %9, ptr @.str.370, ptr @.str.371
  br label %22

11:                                               ; preds = %2
  %switch.selectcmp = icmp eq i32 %1, 1
  %switch.select = select i1 %switch.selectcmp, ptr @.str.371, ptr @.str
  %switch.selectcmp4 = icmp eq i32 %1, 0
  %switch.select5 = select i1 %switch.selectcmp4, ptr @.str.372, ptr %switch.select
  br label %22

12:                                               ; preds = %2
  switch i32 %1, label %21 [
    i32 0, label %13
    i32 1, label %16
  ]

13:                                               ; preds = %12
  %14 = tail call noundef zeroext i1 @_ZNK8cmTarget22IsAndroidGuiExecutableEv(ptr noundef nonnull align 8 dereferenceable(8) %0)
  %15 = select i1 %14, ptr @.str.369, ptr @.str
  br label %22

16:                                               ; preds = %12
  %17 = getelementptr inbounds nuw i8, ptr %3, i64 251
  %18 = load i8, ptr %17, align 1, !tbaa !223, !range !122, !noundef !123
  %19 = trunc nuw i8 %18 to i1
  %20 = select i1 %19, ptr @.str.373, ptr @.str.371
  br label %22

21:                                               ; preds = %2, %12, %5
  br label %22

22:                                               ; preds = %11, %5, %2, %21, %16, %13, %6
  %.0 = phi ptr [ @.str, %21 ], [ %20, %16 ], [ %15, %13 ], [ %10, %6 ], [ @.str.368, %2 ], [ @.str.369, %5 ], [ %switch.select5, %11 ]
  ret ptr %.0
}